(ibackpropagation
RedNeuronal
p1
(dp2
S'threshold_vector'
p3
(lp4
F-6.3439528911724397
aF-9.4334919557155779
aF-0.025153937175028701
aF-0.67702919573712317
asS'alfa'
p5
F0.94999999999999996
sS'cambio_anterior'
p6
(lp7
(lp8
F0
aF0
aF0
aF4.5709950978403669e-05
aa(lp9
F0
aF0
aF0
aF4.8869282413162042e-06
aa(lp10
F0
aF0
aF0
aF0
aa(lp11
F0
aF0
aF-0.20413633428016631
aF5.0710115120512292e-05
aasS'N'
F0.10000000000000001
sS'entradas'
p12
I2
sS'salidas'
p13
I1
sS'red'
p14
(lp15
(lp16
I0
aI0
aI0
aI1
aa(lp17
I0
aI0
aI0
aI1
aa(lp18
I0
aI0
aI0
aI0
aa(lp19
I0
aI0
aI1
aI1
aasS'pesos'
p20
(lp21
(lp22
I0
aI0
aI0
aF3.3672771533402264
aa(lp23
I0
aI0
aI0
aF4.4145172555779562
aa(lp24
I0
aI0
aI0
aI0
aa(lp25
I0
aI0
aF0.91481108507710029
aF0.70567676764753462
aasS'neuronas_escondidas'
p26
I1
sS'threshold_vector_anterior'
p27
(lp28
F1.2134001430986964e-05
aF0.00019612234652340301
aF-0.20412278283009658
aF4.9313995839198816e-05
asS'total_neuronas'
p29
I4
sS'last_output'
p30
(lp31
F1
aF1
aF0.86118567720707162
aF0.99999967002693246
asb.