(ibackpropagation
RedNeuronal
p1
(dp2
S'threshold_vector'
p3
(lp4
F-0.47592587482445703
aF0.55546776859104507
aF-2.5309477322905423
aF1.9379302840447032
aF-1.1840040541380268
asS'alfa'
p5
F0.94999999999999996
sS'cambio_anterior'
p6
(lp7
(lp8
F0
aF0
aF0
aF-1.2659255064677506e-05
aF1.3893031457574141e-05
aa(lp9
F0
aF0
aF0
aF-6.8229455380051001e-06
aF6.6551647519188749e-06
aa(lp10
F0
aF0
aF0
aF0
aF0
aa(lp11
F0
aF0
aF5.3823518460674826e-05
aF0
aF0
aa(lp12
F0
aF0
aF-5.0208819326140995e-05
aF0
aF0
aasS'N'
F0.10000000000000001
sS'entradas'
p13
I2
sS'salidas'
p14
I1
sS'red'
p15
(lp16
(lp17
I0
aI0
aI0
aI1
aI1
aa(lp18
I0
aI0
aI0
aI1
aI1
aa(lp19
I0
aI0
aI0
aI0
aI0
aa(lp20
I0
aI0
aI1
aI0
aI0
aa(lp21
I0
aI0
aI1
aI0
aI0
aasS'pesos'
p22
(lp23
(lp24
I0
aI0
aI0
aF-0.42360132826051367
aF0.18051533586795918
aa(lp25
I0
aI0
aI0
aF0.45319739664082787
aF-0.63821485740707107
aa(lp26
I0
aI0
aI0
aI0
aI0
aa(lp27
I0
aI0
aF-2.2029402581221684
aI0
aI0
aa(lp28
I0
aI0
aF1.1542809129206086
aI0
aI0
aasS'neuronas_escondidas'
p29
I2
sS'threshold_vector_anterior'
p30
(lp31
F4.3684514898737474e-08
aF-7.3554144558716176e-06
aF5.6805535430924989e-05
aF-1.2719767692023436e-05
aF1.3992957555567476e-05
asS'total_neuronas'
p32
I5
sS'last_output'
p33
(lp34
F1
aF1
aF-0.99997849150797358
aF0.96165758214724761
aF-0.92770552848950794
asb.