(ibackpropagation
RedNeuronal
p1
(dp2
S'threshold_vector'
p3
(lp4
F0.63712580203841607
aF0.57061516189105144
aF0.69838479740860449
aF0.85026445962608943
aF0.54741408748455889
aF0.82689436769425706
aF0.82759407993584289
aF0.091362606423898485
aF0.8554671986873994
aF0.26429144945541894
aF3.612850817379929e+17
aF0.51735214024535192
aF0.64840746118936088
aF0.69758371462086577
aF0.9906504925363131
aF0.78452471828391424
aF0.10021407648056957
asS'alfa'
p5
F0.94999999999999996
sS'cambio_anterior'
p6
(lp7
(lp8
F0
aF0
aF0
aF0
aF0
aF0
aF0
aF0
aF0
aF0
aF0
aF0
aF0
aF0
aF0
aF0
aF0
aa(lp9
F0
aF0
aF0
aF0
aF0
aF0
aF0
aF0
aF0
aF0
aF0
aF0
aF0
aF0
aF0
aF0
aF0
aa(lp10
F0
aF0
aF0
aF0
aF0
aF0
aF0
aF0
aF0
aF0
aF0
aF0
aF0
aF0
aF0
aF0
aF0
aa(lp11
F0
aF0
aF0
aF0
aF0
aF0
aF0
aF0
aF0
aF0
aF0
aF0
aF0
aF0
aF0
aF0
aF0
aa(lp12
F0
aF0
aF0
aF0
aF0
aF0
aF0
aF0
aF0
aF0
aF0
aF0
aF0
aF0
aF0
aF0
aF0
aa(lp13
F0
aF0
aF0
aF0
aF0
aF0
aF0
aF0
aF0
aF0
aF0
aF0
aF0
aF0
aF0
aF0
aF0
aa(lp14
F0
aF0
aF0
aF0
aF0
aF0
aF0
aF0
aF0
aF0
aF0
aF0
aF0
aF0
aF0
aF0
aF0
aa(lp15
F0
aF0
aF0
aF0
aF0
aF0
aF0
aF0
aF0
aF0
aF0
aF0
aF0
aF0
aF0
aF0
aF0
aa(lp16
F0
aF0
aF0
aF0
aF0
aF0
aF0
aF0
aF0
aF0
aF0
aF0
aF0
aF0
aF0
aF0
aF0
aa(lp17
F0
aF0
aF0
aF0
aF0
aF0
aF0
aF0
aF0
aF0
aF0
aF0
aF0
aF0
aF0
aF0
aF0
aa(lp18
F0
aF0
aF0
aF0
aF0
aF0
aF0
aF0
aF0
aF0
aF0
aF0
aF0
aF0
aF0
aF0
aF0
aa(lp19
F0
aF0
aF0
aF0
aF0
aF0
aF0
aF0
aF0
aF0
aF-288159153847023.19
aF0
aF0
aF0
aF0
aF0
aF0
aa(lp20
F0
aF0
aF0
aF0
aF0
aF0
aF0
aF0
aF0
aF0
aF288159153847023.19
aF0
aF0
aF0
aF0
aF0
aF0
aa(lp21
F0
aF0
aF0
aF0
aF0
aF0
aF0
aF0
aF0
aF0
aF-288159153847023.19
aF0
aF0
aF0
aF0
aF0
aF0
aa(lp22
F0
aF0
aF0
aF0
aF0
aF0
aF0
aF0
aF0
aF0
aF0
aF0
aF0
aF0
aF0
aF0
aF0
aa(lp23
F0
aF0
aF0
aF0
aF0
aF0
aF0
aF0
aF0
aF0
aF0
aF0
aF0
aF0
aF0
aF0
aF0
aa(lp24
F0
aF0
aF0
aF0
aF0
aF0
aF0
aF0
aF0
aF0
aF288159153847023.19
aF0
aF0
aF0
aF0
aF0
aF0
aasS'N'
F0.10000000000000001
sS'entradas'
p25
I10
sS'salidas'
p26
I1
sS'red'
p27
(lp28
(lp29
I0
aI0
aI0
aI0
aI0
aI0
aI0
aI0
aI0
aI0
aI0
aI1
aI1
aI1
aI1
aI1
aI1
aa(lp30
I0
aI0
aI0
aI0
aI0
aI0
aI0
aI0
aI0
aI0
aI0
aI1
aI1
aI1
aI1
aI1
aI1
aa(lp31
I0
aI0
aI0
aI0
aI0
aI0
aI0
aI0
aI0
aI0
aI0
aI1
aI0
aI0
aI1
aI0
aI0
aa(lp32
I0
aI0
aI0
aI0
aI0
aI0
aI0
aI0
aI0
aI0
aI0
aI1
aI0
aI1
aI1
aI1
aI1
aa(lp33
I0
aI0
aI0
aI0
aI0
aI0
aI0
aI0
aI0
aI0
aI0
aI1
aI1
aI1
aI1
aI0
aI1
aa(lp34
I0
aI0
aI0
aI0
aI0
aI0
aI0
aI0
aI0
aI0
aI0
aI1
aI1
aI0
aI1
aI1
aI1
aa(lp35
I0
aI0
aI0
aI0
aI0
aI0
aI0
aI0
aI0
aI0
aI0
aI1
aI1
aI1
aI1
aI1
aI1
aa(lp36
I0
aI0
aI0
aI0
aI0
aI0
aI0
aI0
aI0
aI0
aI0
aI1
aI1
aI0
aI1
aI1
aI0
aa(lp37
I0
aI0
aI0
aI0
aI0
aI0
aI0
aI0
aI0
aI0
aI0
aI1
aI1
aI1
aI1
aI1
aI1
aa(lp38
I0
aI0
aI0
aI0
aI0
aI0
aI0
aI0
aI0
aI0
aI0
aI1
aI0
aI0
aI0
aI1
aI1
aa(lp39
I0
aI0
aI0
aI0
aI0
aI0
aI0
aI0
aI0
aI0
aI0
aI0
aI0
aI0
aI0
aI0
aI0
aa(lp40
I0
aI0
aI0
aI0
aI0
aI0
aI0
aI0
aI0
aI0
aI1
aI1
aI1
aI1
aI1
aI0
aI0
aa(lp41
I0
aI0
aI0
aI0
aI0
aI0
aI0
aI0
aI0
aI0
aI1
aI1
aI1
aI1
aI0
aI0
aI1
aa(lp42
I0
aI0
aI0
aI0
aI0
aI0
aI0
aI0
aI0
aI0
aI1
aI1
aI1
aI1
aI1
aI1
aI0
aa(lp43
I0
aI0
aI0
aI0
aI0
aI0
aI0
aI0
aI0
aI0
aI0
aI1
aI1
aI1
aI1
aI0
aI1
aa(lp44
I0
aI0
aI0
aI0
aI0
aI0
aI0
aI0
aI0
aI0
aI0
aI1
aI0
aI1
aI1
aI0
aI0
aa(lp45
I0
aI0
aI0
aI0
aI0
aI0
aI0
aI0
aI0
aI0
aI1
aI1
aI1
aI0
aI0
aI1
aI1
aasS'pesos'
p46
(lp47
(lp48
I0
aI0
aI0
aI0
aI0
aI0
aI0
aI0
aI0
aI0
aI0
aF-0.45072570412016433
aF0.17303225539330935
aF-0.24408720187824606
aF-0.29566696191767072
aF0.28547215293725259
aF0.38963714055122634
aa(lp49
I0
aI0
aI0
aI0
aI0
aI0
aI0
aI0
aI0
aI0
aI0
aF-0.022098709640873682
aF-0.16104394838973146
aF-0.37485741816169627
aF0.046474602025558864
aF0.072960795229273678
aF0.22762165678927626
aa(lp50
I0
aI0
aI0
aI0
aI0
aI0
aI0
aI0
aI0
aI0
aI0
aF0.20578354883852934
aI0
aI0
aF-0.16645423387738056
aI0
aI0
aa(lp51
I0
aI0
aI0
aI0
aI0
aI0
aI0
aI0
aI0
aI0
aI0
aF-0.19430787646880632
aI0
aF-0.44853218457881516
aF-0.25921347722901766
aF0.26633846880260792
aF0.23659149207208896
aa(lp52
I0
aI0
aI0
aI0
aI0
aI0
aI0
aI0
aI0
aI0
aI0
aF-0.38885465276471798
aF0.36929367792714063
aF0.44572643532976719
aF-0.27372568139122255
aI0
aF0.12855098048872193
aa(lp53
I0
aI0
aI0
aI0
aI0
aI0
aI0
aI0
aI0
aI0
aI0
aF0.46689774447751464
aF0.47511442047685204
aI0
aF-0.23677632401303672
aF-0.27719443266309995
aF0.061490748332349021
aa(lp54
I0
aI0
aI0
aI0
aI0
aI0
aI0
aI0
aI0
aI0
aI0
aF0.079064458393758863
aF-0.1316233198600395
aF-0.2704104880492364
aF-0.27903715342796365
aF0.30059839821166578
aF-0.42401739056317489
aa(lp55
I0
aI0
aI0
aI0
aI0
aI0
aI0
aI0
aI0
aI0
aI0
aF-0.010571815808185447
aF-0.044894186725717322
aI0
aF-0.28019451934589956
aF-0.31049550926988079
aI0
aa(lp56
I0
aI0
aI0
aI0
aI0
aI0
aI0
aI0
aI0
aI0
aI0
aF-0.016228290912601584
aF0.45442792690585021
aF-0.062768714089325051
aF0.2213908070387467
aF0.49603141061137579
aF-0.42678685385393522
aa(lp57
I0
aI0
aI0
aI0
aI0
aI0
aI0
aI0
aI0
aI0
aI0
aF0.34630987684626335
aI0
aI0
aI0
aF0.46640987952101931
aF0.042113484951882718
aa(lp58
I0
aI0
aI0
aI0
aI0
aI0
aI0
aI0
aI0
aI0
aI0
aI0
aI0
aI0
aI0
aI0
aI0
aa(lp59
I0
aI0
aI0
aI0
aI0
aI0
aI0
aI0
aI0
aI0
aF-3.6105118570558624e+17
aF-0.080198210455791674
aF0.18217279593888236
aF0.31414439873022104
aF-0.15041547236708053
aI0
aI0
aa(lp60
I0
aI0
aI0
aI0
aI0
aI0
aI0
aI0
aI0
aI0
aF3.612850817379929e+17
aF-0.35147669912436974
aF0.014834358570361417
aF0.087363257778248937
aI0
aI0
aF-0.26146492856562531
aa(lp61
I0
aI0
aI0
aI0
aI0
aI0
aI0
aI0
aI0
aI0
aF-2.5173029802847194e+17
aF0.39835247941527563
aF-0.13979530463033496
aF-0.39836084713499953
aF0.44329867027751124
aF0.46991495329706912
aI0
aa(lp62
I0
aI0
aI0
aI0
aI0
aI0
aI0
aI0
aI0
aI0
aI0
aF-0.25029550372719889
aF0.050134303963776827
aF-0.26890322326117733
aF-0.30955895063405858
aI0
aF0.49956013198132465
aa(lp63
I0
aI0
aI0
aI0
aI0
aI0
aI0
aI0
aI0
aI0
aI0
aF-0.16002379458136684
aI0
aF0.34516714021565009
aF-0.24096293675445202
aI0
aI0
aa(lp64
I0
aI0
aI0
aI0
aI0
aI0
aI0
aI0
aI0
aI0
aF2.9205398550583859e+17
aF0.23848942893803382
aF0.1652513101455364
aI0
aI0
aF0.010056882329460337
aF0.0020172931658591908
aasS'neuronas_escondidas'
p65
I6
sS'threshold_vector_anterior'
p66
(lp67
F0
aF0
aF0
aF0
aF0
aF0
aF0
aF0
aF0
aF0
aF288159153847023.19
aF0
aF0
aF0
aF0
aF0
aF0
asS'total_neuronas'
p68
I17
sS'last_output'
p69
(lp70
F26
aF75
aF83
aF411294
aF80268
aF39375
aF15579
aF34085
aF12493
aF34045
aF14972
aF-1
aF1
aF-1
aF-1
aF1
aF1
asb.